; Function Attrs: mustprogress nofree norecurse nosync nounwind memory(read, argmem: readwrite, inaccessiblemem: none) uwtable
define hidden void @_ZN5logos5Match17setRelOrientationEv(ptr noundef nonnull align 8 captures(none) dereferenceable(56) %0) local_unnamed_addr #5 align 2 {
  %2 = load ptr, ptr %0, align 8, !tbaa !3
  %3 = getelementptr inbounds nuw i8, ptr %2, i64 20
  %4 = load float, ptr %3, align 4, !tbaa !30
  %5 = getelementptr inbounds nuw i8, ptr %0, i64 8
  %6 = load ptr, ptr %5, align 8, !tbaa !10
  %7 = getelementptr inbounds nuw i8, ptr %6, i64 20
  %8 = load float, ptr %7, align 4, !tbaa !30
  %9 = fsub float %4, %8
  %10 = tail call noundef float @llvm.fabs.f32(float %9)
  %11 = fpext float %10 to double
  %12 = fcmp ogt double %11, 0x401921FB54442D18
  br i1 %12, label %.lr.ph.i, label %_ZN5logos5Match12angleAbsDiffEff.exit

.lr.ph.i:                                         ; preds = %1, %.lr.ph.i
  %13 = phi double [ %16, %.lr.ph.i ], [ %11, %1 ]
  %14 = fadd double %13, 0xC01921FB54442D18
  %15 = fptrunc double %14 to float
  %16 = fpext float %15 to double
  %17 = fcmp ogt double %16, 0x401921FB54442D18
  br i1 %17, label %.lr.ph.i, label %_ZN5logos5Match12angleAbsDiffEff.exit, !llvm.loop !31

_ZN5logos5Match12angleAbsDiffEff.exit:            ; preds = %.lr.ph.i, %1
  %.0.lcssa.i = phi float [ %10, %1 ], [ %15, %.lr.ph.i ]
  %18 = tail call noundef float @llvm.fabs.f32(float %.0.lcssa.i)
  %19 = fpext float %18 to double
  %20 = fsub double 0x401921FB54442D18, %19
  %21 = fptrunc double %20 to float
  %22 = tail call noundef float @llvm.fabs.f32(float %21)
  %23 = fcmp olt float %22, %18
  %.sroa.speculated.i = select i1 %23, float %22, float %18
  %24 = getelementptr inbounds nuw i8, ptr %0, i64 16
  store float %.sroa.speculated.i, ptr %24, align 8, !tbaa !33
  ret void
}